target datalayout = "e-m:e-p270:32:32-p271:32:32-p272:64:64-i64:64-i128:128-f80:128-n8:16:32:64-S128"
target triple = "x86_64-unknown-linux-gnu"

%"class.sat::literal" = type { i32 }
%class.rational = type { %class.mpq }
%class.mpq = type { %class.mpz, %class.mpz }
%class.mpz = type { i32, i8, ptr }
%"class.lp_api::bound" = type <{ ptr, %"class.sat::literal", i32, i32, i8, [3 x i8], %class.rational, i32, [2 x i32], [4 x i8] }>

; Function Attrs: mustprogress nounwind uwtable
define linkonce_odr hidden noundef i32 @_ZNK6lp_api5boundIN3sat7literalEE14get_bound_kindEv(ptr noundef nonnull align 8 dereferenceable(68) %this) #4 comdat align 2 {
entry:
  %this.addr = alloca ptr, align 8
  store ptr %this, ptr %this.addr, align 8
  %this1 = load ptr, ptr %this.addr, align 8
  %m_bound_kind = getelementptr inbounds %"class.lp_api::bound", ptr %this1, i32 0, i32 7
  %0 = load i32, ptr %m_bound_kind, align 8
  ret i32 %0
}

; Function Attrs: mustprogress uwtable
define hidden noundef ptr @_ZN5arith6solver5firstEN6lp_api10bound_kindEPPNS1_5boundIN3sat7literalEEES8_(ptr noundef nonnull align 8 dereferenceable(1144) %this, i32 noundef %kind, ptr noundef %it, ptr noundef %end) #5 align 2 {
entry:
  %retval = alloca ptr, align 8
  %this.addr = alloca ptr, align 8
  %kind.addr = alloca i32, align 4
  %it.addr = alloca ptr, align 8
  %end.addr = alloca ptr, align 8
  %a = alloca ptr, align 8
  store ptr %this, ptr %this.addr, align 8
  store i32 %kind, ptr %kind.addr, align 4
  store ptr %it, ptr %it.addr, align 8
  store ptr %end, ptr %end.addr, align 8
  br label %for.cond

for.cond:                                         ; preds = %for.inc, %entry
  %0 = load ptr, ptr %it.addr, align 8
  %1 = load ptr, ptr %end.addr, align 8
  %cmp = icmp ne ptr %0, %1
  br i1 %cmp, label %for.body, label %for.end

for.body:                                         ; preds = %for.cond
  %2 = load ptr, ptr %it.addr, align 8
  %3 = load ptr, ptr %2, align 8
  store ptr %3, ptr %a, align 8
  %4 = load ptr, ptr %a, align 8
  %call = call noundef i32 @_ZNK6lp_api5boundIN3sat7literalEE14get_bound_kindEv(ptr noundef nonnull align 8 dereferenceable(68) %4)
  %5 = load i32, ptr %kind.addr, align 4
  %cmp2 = icmp eq i32 %call, %5
  br i1 %cmp2, label %if.then, label %if.end

if.then:                                          ; preds = %for.body
  %6 = load ptr, ptr %it.addr, align 8
  store ptr %6, ptr %retval, align 8
  br label %return

if.end:                                           ; preds = %for.body
  br label %for.inc

for.inc:                                          ; preds = %if.end
  %7 = load ptr, ptr %it.addr, align 8
  %incdec.ptr = getelementptr inbounds ptr, ptr %7, i32 1
  store ptr %incdec.ptr, ptr %it.addr, align 8
  br label %for.cond, !llvm.loop !21

for.end:                                          ; preds = %for.cond
  %8 = load ptr, ptr %end.addr, align 8
  store ptr %8, ptr %retval, align 8
  br label %return

return:                                           ; preds = %for.end, %if.then
  %9 = load ptr, ptr %retval, align 8
  ret ptr %9
}