; Function Attrs: mustprogress nofree norecurse nosync nounwind willreturn memory(read, inaccessiblemem: none) uwtable
define hidden noundef ptr @_ZN5arith6solver5firstEN6lp_api10bound_kindEPPNS1_5boundIN3sat7literalEEES8_(ptr nocapture noundef nonnull readnone align 8 dereferenceable(1144) %this, i32 noundef %kind, ptr noundef readonly %it, ptr noundef readnone %end) local_unnamed_addr #9 align 2 {
entry:
  %cmp.not5 = icmp eq ptr %it, %end
  br i1 %cmp.not5, label %return, label %for.body

for.body:                                         ; preds = %entry, %for.inc
  %it.addr.06 = phi ptr [ %incdec.ptr, %for.inc ], [ %it, %entry ]
  %0 = load ptr, ptr %it.addr.06, align 8
  %m_bound_kind.i = getelementptr inbounds i8, ptr %0, i64 56
  %1 = load i32, ptr %m_bound_kind.i, align 8
  %cmp2 = icmp eq i32 %1, %kind
  br i1 %cmp2, label %return, label %for.inc

for.inc:                                          ; preds = %for.body
  %incdec.ptr = getelementptr inbounds i8, ptr %it.addr.06, i64 8
  %cmp.not = icmp eq ptr %incdec.ptr, %end
  br i1 %cmp.not, label %return, label %for.body, !llvm.loop !41

return:                                           ; preds = %for.body, %for.inc, %entry
  %retval.0 = phi ptr [ %it, %entry ], [ %end, %for.inc ], [ %it.addr.06, %for.body ]
  ret ptr %retval.0
}